; Function Attrs: mustprogress nounwind uwtable
define void @_ZN4toku8treenode4initEPKNS_10comparatorE(ptr noundef nonnull align 8 dereferenceable(202) initializes((0, 48), (136, 145), (152, 160), (192, 202)) %0, ptr noundef %1) local_unnamed_addr #0 align 2 {
  %3 = alloca %union.pthread_mutexattr_t, align 4
  %4 = getelementptr inbounds nuw i8, ptr %0, i64 136
  store i64 0, ptr %4, align 8, !tbaa !4
  %5 = getelementptr inbounds nuw i8, ptr %0, i64 200
  store i8 0, ptr %5, align 8, !tbaa !21
  %6 = getelementptr inbounds nuw i8, ptr %0, i64 201
  store i8 1, ptr %6, align 1, !tbaa !22
  %7 = getelementptr inbounds nuw i8, ptr %0, i64 192
  store ptr %1, ptr %7, align 8, !tbaa !23
  %8 = getelementptr inbounds nuw i8, ptr %0, i64 144
  store i8 0, ptr %8, align 8, !tbaa !24
  %9 = getelementptr inbounds nuw i8, ptr %0, i64 152
  store ptr null, ptr %9, align 8, !tbaa !25
  tail call void @llvm.memset.p0.i64(ptr noundef nonnull align 8 dereferenceable(48) %0, i8 0, i64 48, i1 false)
  call void @llvm.lifetime.start.p0(i64 4, ptr nonnull %3) #17
  %10 = call i32 @pthread_mutexattr_init(ptr noundef nonnull %3) #17
  %11 = call i32 @pthread_mutexattr_settype(ptr noundef nonnull %3, i32 noundef 3) #17
  %12 = call i32 @pthread_mutex_init(ptr noundef nonnull %0, ptr noundef nonnull %3) #17
  %13 = call i32 @pthread_mutexattr_destroy(ptr noundef nonnull %3) #17
  %14 = getelementptr inbounds nuw i8, ptr %0, i64 160
  store ptr null, ptr %14, align 8, !tbaa !26
  %15 = getelementptr inbounds nuw i8, ptr %0, i64 168
  store i32 0, ptr %15, align 8, !tbaa !27
  %16 = getelementptr inbounds nuw i8, ptr %0, i64 176
  store ptr null, ptr %16, align 8, !tbaa !26
  %17 = getelementptr inbounds nuw i8, ptr %0, i64 184
  store i32 0, ptr %17, align 8, !tbaa !27
  call void @llvm.lifetime.end.p0(i64 4, ptr nonnull %3) #17
  ret void
}